; Function Attrs: mustprogress uwtable
define dso_local noundef i32 @_ZN6icu_759ExtraData16writeNoNoMappingEiRKNS_4NormERNS_13UnicodeStringERNS_9HashtableE(ptr nocapture nonnull readnone align 8 %this, i32 noundef %c, ptr nocapture noundef nonnull readonly align 8 dereferenceable(64) %norm, ptr noundef nonnull align 8 dereferenceable(64) %dataString, ptr nocapture noundef nonnull readonly align 8 dereferenceable(88) %previousMappings) local_unnamed_addr #0 align 2 personality ptr @__gxx_personality_v0 {
entry:
  %newMapping = alloca %"class.icu_75::UnicodeString", align 8
  %found = alloca i8, align 1
  %errorCode = alloca %"class.icu_75::IcuToolErrorCode", align 8
  store ptr getelementptr inbounds ({ [13 x ptr] }, ptr @_ZTVN6icu_7513UnicodeStringE, i64 0, i32 0, i64 2), ptr %newMapping, align 8
  %fUnion2.i = getelementptr inbounds i8, ptr %newMapping, i64 8
  store i16 2, ptr %fUnion2.i, align 8
  %call = invoke noundef i32 @_ZN6icu_759ExtraData12writeMappingEiRKNS_4NormERNS_13UnicodeStringE(ptr nonnull align 8 poison, i32 noundef %c, ptr noundef nonnull align 8 dereferenceable(64) %norm, ptr noundef nonnull align 8 dereferenceable(64) %newMapping)
          to label %invoke.cont unwind label %lpad

invoke.cont:                                      ; preds = %entry
  store i8 0, ptr %found, align 1
  %0 = load ptr, ptr %previousMappings, align 8
  %call.i6 = invoke noundef i32 @uhash_getiAndFound_75(ptr noundef %0, ptr noundef nonnull %newMapping, ptr noundef nonnull %found)
          to label %invoke.cont2 unwind label %lpad

invoke.cont2:                                     ; preds = %invoke.cont
  %1 = load i8, ptr %found, align 1
  %tobool.not = icmp eq i8 %1, 0
  br i1 %tobool.not, label %invoke.cont4, label %if.end

lpad:                                             ; preds = %invoke.cont4, %invoke.cont, %entry
  %2 = landingpad { ptr, i32 }
          cleanup
  br label %ehcleanup

invoke.cont4:                                     ; preds = %invoke.cont2
  %fUnion.i.i = getelementptr inbounds i8, ptr %dataString, i64 8
  %3 = load i16, ptr %fUnion.i.i, align 8
  %cmp.i.i = icmp slt i16 %3, 0
  %4 = ashr i16 %3, 5
  %shr.i.i = sext i16 %4 to i32
  %fLength.i = getelementptr inbounds i8, ptr %dataString, i64 12
  %5 = load i32, ptr %fLength.i, align 4
  %cond.i = select i1 %cmp.i.i, i32 %5, i32 %shr.i.i
  %add = add nsw i32 %cond.i, %call
  %6 = load i16, ptr %fUnion2.i, align 8
  %cmp.i.i.i = icmp slt i16 %6, 0
  %7 = ashr i16 %6, 5
  %shr.i.i.i = sext i16 %7 to i32
  %fLength.i.i = getelementptr inbounds i8, ptr %newMapping, i64 12
  %8 = load i32, ptr %fLength.i.i, align 4
  %cond.i.i = select i1 %cmp.i.i.i, i32 %8, i32 %shr.i.i.i
  %call2.i7 = invoke noundef nonnull align 8 dereferenceable(64) ptr @_ZN6icu_7513UnicodeString8doAppendERKS0_ii(ptr noundef nonnull align 8 dereferenceable(64) %dataString, ptr noundef nonnull align 8 dereferenceable(64) %newMapping, i32 noundef 0, i32 noundef %cond.i.i)
          to label %invoke.cont8 unwind label %lpad

invoke.cont8:                                     ; preds = %invoke.cont4
  %errorCode.i.i = getelementptr inbounds i8, ptr %errorCode, i64 8
  store i32 0, ptr %errorCode.i.i, align 8
  store ptr getelementptr inbounds ({ [5 x ptr] }, ptr @_ZTVN6icu_7516IcuToolErrorCodeE, i64 0, i32 0, i64 2), ptr %errorCode, align 8
  %location.i = getelementptr inbounds i8, ptr %errorCode, i64 16
  store ptr @.str.1, ptr %location.i, align 8
  %9 = load ptr, ptr %previousMappings, align 8
  %call.i = call noundef ptr @_ZN6icu_757UMemorynwEm(i64 noundef 64) #10
  %new.isnull.i = icmp eq ptr %call.i, null
  br i1 %new.isnull.i, label %new.cont.i, label %new.notnull.i

new.notnull.i:                                    ; preds = %invoke.cont8
  invoke void @_ZN6icu_7513UnicodeStringC1ERKS0_(ptr noundef nonnull align 8 dereferenceable(64) %call.i, ptr noundef nonnull align 8 dereferenceable(64) %newMapping)
          to label %new.cont.i unwind label %lpad.i

new.cont.i:                                       ; preds = %new.notnull.i, %invoke.cont8
  %call2.i8 = invoke noundef i32 @uhash_putiAllowZero_75(ptr noundef %9, ptr noundef %call.i, i32 noundef %add, ptr noundef nonnull %errorCode.i.i)
          to label %invoke.cont12 unwind label %lpad9

lpad.i:                                           ; preds = %new.notnull.i
  %10 = landingpad { ptr, i32 }
          cleanup
  call void @_ZN6icu_757UMemorydlEPv(ptr noundef nonnull %call.i) #10
  br label %lpad9.body

invoke.cont12:                                    ; preds = %new.cont.i
  call void @_ZN6icu_7516IcuToolErrorCodeD1Ev(ptr noundef nonnull align 8 dereferenceable(24) %errorCode) #10
  br label %if.end

lpad9:                                            ; preds = %new.cont.i
  %11 = landingpad { ptr, i32 }
          cleanup
  br label %lpad9.body

lpad9.body:                                       ; preds = %lpad.i, %lpad9
  %eh.lpad-body = phi { ptr, i32 } [ %11, %lpad9 ], [ %10, %lpad.i ]
  call void @_ZN6icu_7516IcuToolErrorCodeD1Ev(ptr noundef nonnull align 8 dereferenceable(24) %errorCode) #10
  br label %ehcleanup

if.end:                                           ; preds = %invoke.cont2, %invoke.cont12
  %offset.0 = phi i32 [ %add, %invoke.cont12 ], [ %call.i6, %invoke.cont2 ]
  call void @_ZN6icu_7513UnicodeStringD1Ev(ptr noundef nonnull align 8 dereferenceable(64) %newMapping) #10
  ret i32 %offset.0

ehcleanup:                                        ; preds = %lpad9.body, %lpad
  %.pn = phi { ptr, i32 } [ %eh.lpad-body, %lpad9.body ], [ %2, %lpad ]
  call void @_ZN6icu_7513UnicodeStringD1Ev(ptr noundef nonnull align 8 dereferenceable(64) %newMapping) #10
  resume { ptr, i32 } %.pn
}